; ModuleID = '53/151.c'
source_filename = "53/151.c"
target datalayout = "e-m:e-p270:32:32-p271:32:32-p272:64:64-i64:64-f80:128-n8:16:32:64-S128"
target triple = "x86_64-pc-linux-gnu"

@.str = private unnamed_addr constant [3 x i8] c"%d\00", align 1
@.str.1 = private unnamed_addr constant [4 x i8] c",%d\00", align 1

; Function Attrs: noinline nounwind uwtable
define dso_local void @main() #0 {
  %1 = alloca i32, align 4
  %2 = alloca [300 x i32], align 16
  %3 = alloca i32*, align 8
  %4 = alloca i32, align 4
  %5 = alloca i32, align 4
  %6 = alloca i32, align 4
  %7 = alloca i32, align 4
  store i32 0, i32* %7, align 4
  %8 = call i32 (i8*, ...) @__isoc99_scanf(i8* getelementptr inbounds ([3 x i8], [3 x i8]* @.str, i64 0, i64 0), i32* %1)
  %9 = getelementptr inbounds [300 x i32], [300 x i32]* %2, i64 0, i64 0
  store i32* %9, i32** %3, align 8
  br label %10

10:                                               ; preds = %20, %0
  %11 = load i32*, i32** %3, align 8
  %12 = load i32, i32* %1, align 4
  %13 = getelementptr inbounds [300 x i32], [300 x i32]* %2, i64 0, i64 0
  %14 = sext i32 %12 to i64
  %15 = getelementptr inbounds i32, i32* %13, i64 %14
  %16 = icmp ult i32* %11, %15
  br i1 %16, label %17, label %23

17:                                               ; preds = %10
  %18 = load i32*, i32** %3, align 8
  %19 = call i32 (i8*, ...) @__isoc99_scanf(i8* getelementptr inbounds ([3 x i8], [3 x i8]* @.str, i64 0, i64 0), i32* %18)
  br label %20

20:                                               ; preds = %17
  %21 = load i32*, i32** %3, align 8
  %22 = getelementptr inbounds i32, i32* %21, i32 1
  store i32* %22, i32** %3, align 8
  br label %10

23:                                               ; preds = %10
  store i32 0, i32* %4, align 4
  br label %24

24:                                               ; preds = %99, %23
  %25 = load i32, i32* %4, align 4
  %26 = load i32, i32* %1, align 4
  %27 = sub nsw i32 %26, 1
  %28 = icmp slt i32 %25, %27
  br i1 %28, label %29, label %102

29:                                               ; preds = %24
  %30 = load i32, i32* %4, align 4
  %31 = add nsw i32 %30, 1
  store i32 %31, i32* %5, align 4
  br label %32

32:                                               ; preds = %95, %29
  %33 = load i32, i32* %5, align 4
  %34 = load i32, i32* %1, align 4
  %35 = icmp slt i32 %33, %34
  br i1 %35, label %36, label %98

36:                                               ; preds = %32
  %37 = load i32, i32* %4, align 4
  %38 = sext i32 %37 to i64
  %39 = getelementptr inbounds [300 x i32], [300 x i32]* %2, i64 0, i64 %38
  %40 = load i32, i32* %39, align 4
  %41 = load i32, i32* %5, align 4
  %42 = sext i32 %41 to i64
  %43 = getelementptr inbounds [300 x i32], [300 x i32]* %2, i64 0, i64 %42
  %44 = load i32, i32* %43, align 4
  %45 = icmp eq i32 %40, %44
  br i1 %45, label %46, label %73

46:                                               ; preds = %36
  %47 = load i32, i32* %5, align 4
  %48 = load i32, i32* %1, align 4
  %49 = sub nsw i32 %48, 1
  %50 = icmp ne i32 %47, %49
  br i1 %50, label %51, label %73

51:                                               ; preds = %46
  %52 = load i32, i32* %1, align 4
  %53 = add nsw i32 %52, -1
  store i32 %53, i32* %1, align 4
  %54 = load i32, i32* %5, align 4
  store i32 %54, i32* %6, align 4
  br label %55

55:                                               ; preds = %66, %51
  %56 = load i32, i32* %6, align 4
  %57 = add nsw i32 %56, 1
  %58 = sext i32 %57 to i64
  %59 = getelementptr inbounds [300 x i32], [300 x i32]* %2, i64 0, i64 %58
  %60 = load i32, i32* %59, align 4
  %61 = load i32, i32* %6, align 4
  %62 = sext i32 %61 to i64
  %63 = getelementptr inbounds [300 x i32], [300 x i32]* %2, i64 0, i64 %62
  store i32 %60, i32* %63, align 4
  %64 = load i32, i32* %6, align 4
  %65 = add nsw i32 %64, 1
  store i32 %65, i32* %6, align 4
  br label %66

66:                                               ; preds = %55
  %67 = load i32, i32* %6, align 4
  %68 = load i32, i32* %1, align 4
  %69 = icmp slt i32 %67, %68
  br i1 %69, label %55, label %70

70:                                               ; preds = %66
  %71 = load i32, i32* %5, align 4
  %72 = add nsw i32 %71, -1
  store i32 %72, i32* %5, align 4
  br label %94

73:                                               ; preds = %46, %36
  %74 = load i32, i32* %4, align 4
  %75 = sext i32 %74 to i64
  %76 = getelementptr inbounds [300 x i32], [300 x i32]* %2, i64 0, i64 %75
  %77 = load i32, i32* %76, align 4
  %78 = load i32, i32* %5, align 4
  %79 = sext i32 %78 to i64
  %80 = getelementptr inbounds [300 x i32], [300 x i32]* %2, i64 0, i64 %79
  %81 = load i32, i32* %80, align 4
  %82 = icmp eq i32 %77, %81
  br i1 %82, label %83, label %93

83:                                               ; preds = %73
  %84 = load i32, i32* %5, align 4
  %85 = load i32, i32* %1, align 4
  %86 = sub nsw i32 %85, 1
  %87 = icmp eq i32 %84, %86
  br i1 %87, label %88, label %93

88:                                               ; preds = %83
  %89 = load i32, i32* %1, align 4
  %90 = add nsw i32 %89, -1
  store i32 %90, i32* %1, align 4
  %91 = load i32, i32* %5, align 4
  %92 = add nsw i32 %91, -1
  store i32 %92, i32* %5, align 4
  br label %93

93:                                               ; preds = %88, %83, %73
  br label %94

94:                                               ; preds = %93, %70
  br label %95

95:                                               ; preds = %94
  %96 = load i32, i32* %5, align 4
  %97 = add nsw i32 %96, 1
  store i32 %97, i32* %5, align 4
  br label %32

98:                                               ; preds = %32
  br label %99

99:                                               ; preds = %98
  %100 = load i32, i32* %4, align 4
  %101 = add nsw i32 %100, 1
  store i32 %101, i32* %4, align 4
  br label %24

102:                                              ; preds = %24
  store i32 0, i32* %4, align 4
  br label %103

103:                                              ; preds = %125, %102
  %104 = load i32, i32* %4, align 4
  %105 = load i32, i32* %1, align 4
  %106 = icmp slt i32 %104, %105
  br i1 %106, label %107, label %128

107:                                              ; preds = %103
  %108 = load i32, i32* %7, align 4
  %109 = icmp eq i32 %108, 0
  br i1 %109, label %110, label %118

110:                                              ; preds = %107
  %111 = load i32, i32* %4, align 4
  %112 = sext i32 %111 to i64
  %113 = getelementptr inbounds [300 x i32], [300 x i32]* %2, i64 0, i64 %112
  %114 = load i32, i32* %113, align 4
  %115 = call i32 (i8*, ...) @printf(i8* getelementptr inbounds ([3 x i8], [3 x i8]* @.str, i64 0, i64 0), i32 %114)
  %116 = load i32, i32* %7, align 4
  %117 = add nsw i32 %116, 1
  store i32 %117, i32* %7, align 4
  br label %124

118:                                              ; preds = %107
  %119 = load i32, i32* %4, align 4
  %120 = sext i32 %119 to i64
  %121 = getelementptr inbounds [300 x i32], [300 x i32]* %2, i64 0, i64 %120
  %122 = load i32, i32* %121, align 4
  %123 = call i32 (i8*, ...) @printf(i8* getelementptr inbounds ([4 x i8], [4 x i8]* @.str.1, i64 0, i64 0), i32 %122)
  br label %124

124:                                              ; preds = %118, %110
  br label %125

125:                                              ; preds = %124
  %126 = load i32, i32* %4, align 4
  %127 = add nsw i32 %126, 1
  store i32 %127, i32* %4, align 4
  br label %103

128:                                              ; preds = %103
  ret void
}

declare dso_local i32 @__isoc99_scanf(i8*, ...) #1

declare dso_local i32 @printf(i8*, ...) #1


!llvm.module.flags = !{!0}
!llvm.ident = !{!1}

!0 = !{i32 1, !"wchar_size", i32 4}
!1 = !{!"clang version 10.0.0-4ubuntu1 "}
